; Function Attrs: mustprogress nofree norecurse nosync nounwind willreturn memory(read, inaccessiblemem: none) uwtable
define noundef i64 @_ZNK8facebook5velox16ByteOutputStream4sizeEv(ptr nocapture noundef nonnull readonly align 8 dereferenceable(60) %this) local_unnamed_addr #5 align 2 {
entry:
  %ranges_ = getelementptr inbounds i8, ptr %this, i64 16
  %0 = load ptr, ptr %ranges_, align 8
  %_M_finish.i.i = getelementptr inbounds i8, ptr %this, i64 24
  %1 = load ptr, ptr %_M_finish.i.i, align 8
  %cmp.i.i = icmp eq ptr %0, %1
  br i1 %cmp.i.i, label %return, label %for.cond.preheader

for.cond.preheader:                               ; preds = %entry
  %sub.ptr.lhs.cast.i = ptrtoint ptr %1 to i64
  %sub.ptr.rhs.cast.i = ptrtoint ptr %0 to i64
  %sub.ptr.sub.i = sub i64 %sub.ptr.lhs.cast.i, %sub.ptr.rhs.cast.i
  %sub.ptr.div.i = ashr exact i64 %sub.ptr.sub.i, 4
  %sub = add nsw i64 %sub.ptr.div.i, -1
  %cmp5.not = icmp eq i64 %sub, 0
  br i1 %cmp5.not, label %for.end, label %for.body

for.body:                                         ; preds = %for.cond.preheader, %for.body
  %indvars.iv = phi i64 [ %indvars.iv.next, %for.body ], [ 0, %for.cond.preheader ]
  %total.06 = phi i64 [ %add, %for.body ], [ 0, %for.cond.preheader ]
  %size = getelementptr inbounds %"struct.facebook::velox::ByteRange", ptr %0, i64 %indvars.iv, i32 1
  %2 = load i32, ptr %size, align 8
  %conv7 = sext i32 %2 to i64
  %add = add i64 %total.06, %conv7
  %indvars.iv.next = add nuw nsw i64 %indvars.iv, 1
  %exitcond.not = icmp eq i64 %indvars.iv.next, %sub
  br i1 %exitcond.not, label %for.end, label %for.body, !llvm.loop !13

for.end:                                          ; preds = %for.body, %for.cond.preheader
  %total.0.lcssa = phi i64 [ 0, %for.cond.preheader ], [ %add, %for.body ]
  %position = getelementptr inbounds i8, ptr %1, i64 -4
  %lastRangeEnd_ = getelementptr inbounds i8, ptr %this, i64 56
  %3 = load i32, ptr %position, align 4
  %4 = load i32, ptr %lastRangeEnd_, align 8
  %5 = tail call i32 @llvm.smax.i32(i32 %3, i32 %4)
  %conv11 = sext i32 %5 to i64
  %add12 = add i64 %total.0.lcssa, %conv11
  br label %return

return:                                           ; preds = %entry, %for.end
  %retval.0 = phi i64 [ %add12, %for.end ], [ 0, %entry ]
  ret i64 %retval.0
}